; Function Attrs: nounwind uwtable
define dso_local ptr @dictDefragTables(ptr noundef %0) #0 {
  %2 = tail call i32 @je_get_defrag_hint(ptr noundef %0) #10
  %.not.i = icmp eq i32 %2, 0
  br i1 %.not.i, label %3, label %6

3:                                                ; preds = %1
  %4 = load i64, ptr getelementptr inbounds nuw (i8, ptr @server, i64 2592), align 8, !tbaa !5
  %5 = add nsw i64 %4, 1
  store i64 %5, ptr getelementptr inbounds nuw (i8, ptr @server, i64 2592), align 8, !tbaa !5
  br label %activeDefragAlloc.exit

6:                                                ; preds = %1
  %7 = tail call i64 @je_malloc_usable_size(ptr noundef %0) #10
  %8 = tail call noalias ptr @zmalloc_no_tcache(i64 noundef %7) #10
  tail call void @llvm.memcpy.p0.p0.i64(ptr align 1 %8, ptr align 1 %0, i64 %7, i1 false)
  tail call void @zfree_no_tcache(ptr noundef %0) #10
  %9 = load i64, ptr getelementptr inbounds nuw (i8, ptr @server, i64 2584), align 8, !tbaa !38
  %10 = add nsw i64 %9, 1
  store i64 %10, ptr getelementptr inbounds nuw (i8, ptr @server, i64 2584), align 8, !tbaa !38
  br label %activeDefragAlloc.exit

activeDefragAlloc.exit:                           ; preds = %3, %6
  %.0.i = phi ptr [ %8, %6 ], [ null, %3 ]
  %.not = icmp eq ptr %.0.i, null
  %spec.select = select i1 %.not, ptr %0, ptr %.0.i
  %11 = getelementptr inbounds nuw i8, ptr %spec.select, i64 8
  %12 = load ptr, ptr %11, align 8, !tbaa !46
  %.not21 = icmp eq ptr %12, null
  br i1 %.not21, label %34, label %13

13:                                               ; preds = %activeDefragAlloc.exit
  %14 = tail call i32 @je_get_defrag_hint(ptr noundef nonnull %12) #10
  %.not.i25 = icmp eq i32 %14, 0
  br i1 %.not.i25, label %activeDefragAlloc.exit27.thread, label %activeDefragAlloc.exit27

activeDefragAlloc.exit27.thread:                  ; preds = %13
  %15 = load i64, ptr getelementptr inbounds nuw (i8, ptr @server, i64 2592), align 8, !tbaa !5
  %16 = add nsw i64 %15, 1
  store i64 %16, ptr getelementptr inbounds nuw (i8, ptr @server, i64 2592), align 8, !tbaa !5
  br label %22

activeDefragAlloc.exit27:                         ; preds = %13
  %17 = tail call i64 @je_malloc_usable_size(ptr noundef nonnull %12) #10
  %18 = tail call noalias ptr @zmalloc_no_tcache(i64 noundef %17) #10
  tail call void @llvm.memcpy.p0.p0.i64(ptr align 1 %18, ptr nonnull align 1 %12, i64 %17, i1 false)
  tail call void @zfree_no_tcache(ptr noundef nonnull %12) #10
  %19 = load i64, ptr getelementptr inbounds nuw (i8, ptr @server, i64 2584), align 8, !tbaa !38
  %20 = add nsw i64 %19, 1
  store i64 %20, ptr getelementptr inbounds nuw (i8, ptr @server, i64 2584), align 8, !tbaa !38
  %.not22 = icmp eq ptr %18, null
  br i1 %.not22, label %22, label %21

21:                                               ; preds = %activeDefragAlloc.exit27
  store ptr %18, ptr %11, align 8, !tbaa !46
  br label %22

22:                                               ; preds = %activeDefragAlloc.exit27.thread, %21, %activeDefragAlloc.exit27
  %23 = getelementptr inbounds nuw i8, ptr %spec.select, i64 16
  %24 = load ptr, ptr %23, align 8, !tbaa !46
  %.not23 = icmp eq ptr %24, null
  br i1 %.not23, label %34, label %25

25:                                               ; preds = %22
  %26 = tail call i32 @je_get_defrag_hint(ptr noundef nonnull %24) #10
  %.not.i28 = icmp eq i32 %26, 0
  br i1 %.not.i28, label %activeDefragAlloc.exit30.thread, label %activeDefragAlloc.exit30

activeDefragAlloc.exit30.thread:                  ; preds = %25
  %27 = load i64, ptr getelementptr inbounds nuw (i8, ptr @server, i64 2592), align 8, !tbaa !5
  %28 = add nsw i64 %27, 1
  store i64 %28, ptr getelementptr inbounds nuw (i8, ptr @server, i64 2592), align 8, !tbaa !5
  br label %34

activeDefragAlloc.exit30:                         ; preds = %25
  %29 = tail call i64 @je_malloc_usable_size(ptr noundef nonnull %24) #10
  %30 = tail call noalias ptr @zmalloc_no_tcache(i64 noundef %29) #10
  tail call void @llvm.memcpy.p0.p0.i64(ptr align 1 %30, ptr nonnull align 1 %24, i64 %29, i1 false)
  tail call void @zfree_no_tcache(ptr noundef nonnull %24) #10
  %31 = load i64, ptr getelementptr inbounds nuw (i8, ptr @server, i64 2584), align 8, !tbaa !38
  %32 = add nsw i64 %31, 1
  store i64 %32, ptr getelementptr inbounds nuw (i8, ptr @server, i64 2584), align 8, !tbaa !38
  %.not24 = icmp eq ptr %30, null
  br i1 %.not24, label %34, label %33

33:                                               ; preds = %activeDefragAlloc.exit30
  store ptr %30, ptr %23, align 8, !tbaa !46
  br label %34

34:                                               ; preds = %activeDefragAlloc.exit30.thread, %22, %33, %activeDefragAlloc.exit30, %activeDefragAlloc.exit
  ret ptr %.0.i
}